target datalayout = "e-m:e-p270:32:32-p271:32:32-p272:64:64-i64:64-i128:128-f80:128-n8:16:32:64-S128"
target triple = "x86_64-pc-linux-gnu"

; Function Attrs: nounwind uwtable
define internal void @pred8x8_left_dc_rv40_c(ptr noundef %0, i64 noundef %1) #1 {
  %3 = alloca ptr, align 8
  %4 = alloca i64, align 8
  %5 = alloca i32, align 4
  %6 = alloca i32, align 4
  store ptr %0, ptr %3, align 8, !tbaa !12
  store i64 %1, ptr %4, align 8, !tbaa !14
  call void @llvm.lifetime.start.p0(i64 4, ptr %5) #9
  call void @llvm.lifetime.start.p0(i64 4, ptr %6) #9
  store i32 0, ptr %6, align 4, !tbaa !9
  store i32 0, ptr %5, align 4, !tbaa !9
  br label %7

7:                                                ; preds = %22, %2
  %8 = load i32, ptr %5, align 4, !tbaa !9
  %9 = icmp slt i32 %8, 8
  br i1 %9, label %10, label %25

10:                                               ; preds = %7
  %11 = load ptr, ptr %3, align 8, !tbaa !12
  %12 = load i32, ptr %5, align 4, !tbaa !9
  %13 = sext i32 %12 to i64
  %14 = load i64, ptr %4, align 8, !tbaa !14
  %15 = mul nsw i64 %13, %14
  %16 = add nsw i64 -1, %15
  %17 = getelementptr inbounds i8, ptr %11, i64 %16
  %18 = load i8, ptr %17, align 1, !tbaa !18
  %19 = zext i8 %18 to i32
  %20 = load i32, ptr %6, align 4, !tbaa !9
  %21 = add i32 %20, %19
  store i32 %21, ptr %6, align 4, !tbaa !9
  br label %22

22:                                               ; preds = %10
  %23 = load i32, ptr %5, align 4, !tbaa !9
  %24 = add nsw i32 %23, 1
  store i32 %24, ptr %5, align 4, !tbaa !9
  br label %7, !llvm.loop !277

25:                                               ; preds = %7
  %26 = load i32, ptr %6, align 4, !tbaa !9
  %27 = add i32 %26, 4
  %28 = lshr i32 %27, 3
  %29 = mul i32 16843009, %28
  store i32 %29, ptr %6, align 4, !tbaa !9
  store i32 0, ptr %5, align 4, !tbaa !9
  br label %30

30:                                               ; preds = %49, %25
  %31 = load i32, ptr %5, align 4, !tbaa !9
  %32 = icmp slt i32 %31, 8
  br i1 %32, label %33, label %52

33:                                               ; preds = %30
  %34 = load i32, ptr %6, align 4, !tbaa !9
  %35 = load ptr, ptr %3, align 8, !tbaa !12
  %36 = load i32, ptr %5, align 4, !tbaa !9
  %37 = sext i32 %36 to i64
  %38 = load i64, ptr %4, align 8, !tbaa !14
  %39 = mul nsw i64 %37, %38
  %40 = getelementptr inbounds i8, ptr %35, i64 %39
  %41 = getelementptr inbounds i32, ptr %40, i64 1
  store i32 %34, ptr %41, align 4, !tbaa !9
  %42 = load ptr, ptr %3, align 8, !tbaa !12
  %43 = load i32, ptr %5, align 4, !tbaa !9
  %44 = sext i32 %43 to i64
  %45 = load i64, ptr %4, align 8, !tbaa !14
  %46 = mul nsw i64 %44, %45
  %47 = getelementptr inbounds i8, ptr %42, i64 %46
  %48 = getelementptr inbounds i32, ptr %47, i64 0
  store i32 %34, ptr %48, align 4, !tbaa !9
  br label %49

49:                                               ; preds = %33
  %50 = load i32, ptr %5, align 4, !tbaa !9
  %51 = add nsw i32 %50, 1
  store i32 %51, ptr %5, align 4, !tbaa !9
  br label %30, !llvm.loop !278

52:                                               ; preds = %30
  call void @llvm.lifetime.end.p0(i64 4, ptr %6) #9
  call void @llvm.lifetime.end.p0(i64 4, ptr %5) #9
  ret void
}