; Function Attrs: nofree norecurse nosync nounwind memory(argmem: readwrite) uwtable
define internal void @pred8x8_left_dc_rv40_c(ptr noundef captures(none) %0, i64 noundef %1) #3 {
  %invariant.gep = getelementptr i8, ptr %0, i64 -1
  br label %3

3:                                                ; preds = %2, %3
  %indvars.iv = phi i64 [ 0, %2 ], [ %indvars.iv.next, %3 ]
  %.017 = phi i32 [ 0, %2 ], [ %7, %3 ]
  %4 = mul nsw i64 %1, %indvars.iv
  %gep = getelementptr i8, ptr %invariant.gep, i64 %4
  %5 = load i8, ptr %gep, align 1, !tbaa !8
  %6 = zext i8 %5 to i32
  %7 = add i32 %.017, %6
  %indvars.iv.next = add nuw nsw i64 %indvars.iv, 1
  %exitcond.not = icmp eq i64 %indvars.iv.next, 8
  br i1 %exitcond.not, label %8, label %3, !llvm.loop !279

8:                                                ; preds = %3
  %9 = add i32 %7, 4
  %10 = lshr i32 %9, 3
  %11 = mul i32 %10, 16843009
  br label %12

12:                                               ; preds = %8, %12
  %indvars.iv20 = phi i64 [ 0, %8 ], [ %indvars.iv.next21, %12 ]
  %13 = mul nsw i64 %1, %indvars.iv20
  %14 = getelementptr inbounds i8, ptr %0, i64 %13
  %15 = getelementptr inbounds nuw i8, ptr %14, i64 4
  store i32 %11, ptr %15, align 4, !tbaa !56
  store i32 %11, ptr %14, align 4, !tbaa !56
  %indvars.iv.next21 = add nuw nsw i64 %indvars.iv20, 1
  %exitcond23.not = icmp eq i64 %indvars.iv.next21, 8
  br i1 %exitcond23.not, label %16, label %12, !llvm.loop !280

16:                                               ; preds = %12
  ret void
}